target datalayout = "e-m:e-p270:32:32-p271:32:32-p272:64:64-i64:64-i128:128-f80:128-n8:16:32:64-S128"
target triple = "x86_64-pc-linux-gnu"

%"class.std::__shared_count" = type { ptr }
%"class.dropbox::oxygen::nn.68" = type { %"class.std::shared_ptr.51" }
%"class.std::shared_ptr.51" = type { %"class.std::__shared_ptr.52" }
%"class.std::__shared_ptr.52" = type { ptr, %"class.std::__shared_count" }
%"class.osgeo::proj::util::PropertyMap" = type { %"class.std::unique_ptr.174" }
%"class.std::unique_ptr.174" = type { %"struct.std::__uniq_ptr_data.175" }
%"struct.std::__uniq_ptr_data.175" = type { %"class.std::__uniq_ptr_impl.176" }
%"class.std::__uniq_ptr_impl.176" = type { %"class.std::tuple.177" }
%"class.std::tuple.177" = type { %"struct.std::_Tuple_impl.178" }
%"struct.std::_Tuple_impl.178" = type { %"struct.std::_Head_base.181" }
%"struct.std::_Head_base.181" = type { ptr }

; Function Attrs: mustprogress uwtable
define void @_ZN5osgeo4proj9operation14Transformation42createTimeDependentCoordinateFrameRotationERKNS0_4util11PropertyMapERKN7dropbox6oxygen2nnISt10shared_ptrINS0_3crs3CRSEEEESG_dddddddddddddddRKSt6vectorINS9_ISA_INS0_8metadata18PositionalAccuracyEEEESaISL_EE(ptr dead_on_unwind noalias writable sret(%"class.dropbox::oxygen::nn.68") align 8 %0, ptr noundef nonnull align 8 dereferenceable(8) %1, ptr noundef nonnull align 8 dereferenceable(16) %2, ptr noundef nonnull align 8 dereferenceable(16) %3, double noundef %4, double noundef %5, double noundef %6, double noundef %7, double noundef %8, double noundef %9, double noundef %10, double noundef %11, double noundef %12, double noundef %13, double noundef %14, double noundef %15, double noundef %16, double noundef %17, double noundef %18, ptr noundef nonnull align 8 dereferenceable(24) %19) #0 align 2 personality ptr @__gxx_personality_v0 {
  %21 = alloca ptr, align 8
  %22 = alloca ptr, align 8
  %23 = alloca ptr, align 8
  %24 = alloca ptr, align 8
  %25 = alloca double, align 8
  %26 = alloca double, align 8
  %27 = alloca double, align 8
  %28 = alloca double, align 8
  %29 = alloca double, align 8
  %30 = alloca double, align 8
  %31 = alloca double, align 8
  %32 = alloca double, align 8
  %33 = alloca double, align 8
  %34 = alloca double, align 8
  %35 = alloca double, align 8
  %36 = alloca double, align 8
  %37 = alloca double, align 8
  %38 = alloca double, align 8
  %39 = alloca double, align 8
  %40 = alloca ptr, align 8
  %41 = alloca i8, align 1
  %42 = alloca i8, align 1
  %43 = alloca i8, align 1
  %44 = alloca %"class.osgeo::proj::util::PropertyMap", align 8
  %45 = alloca ptr, align 8
  %46 = alloca i32, align 4
  store ptr %0, ptr %21, align 8
  store ptr %1, ptr %22, align 8
  store ptr %2, ptr %23, align 8
  store ptr %3, ptr %24, align 8
  store double %4, ptr %25, align 8
  store double %5, ptr %26, align 8
  store double %6, ptr %27, align 8
  store double %7, ptr %28, align 8
  store double %8, ptr %29, align 8
  store double %9, ptr %30, align 8
  store double %10, ptr %31, align 8
  store double %11, ptr %32, align 8
  store double %12, ptr %33, align 8
  store double %13, ptr %34, align 8
  store double %14, ptr %35, align 8
  store double %15, ptr %36, align 8
  store double %16, ptr %37, align 8
  store double %17, ptr %38, align 8
  store double %18, ptr %39, align 8
  store ptr %19, ptr %40, align 8
  %47 = load ptr, ptr %23, align 8
  %48 = load ptr, ptr %24, align 8
  call void @_ZN5osgeo4proj9operationL21getTransformationTypeERKN7dropbox6oxygen2nnISt10shared_ptrINS0_3crs3CRSEEEESB_RbSC_SC_(ptr noundef nonnull align 8 dereferenceable(16) %47, ptr noundef nonnull align 8 dereferenceable(16) %48, ptr noundef nonnull align 1 dereferenceable(1) %41, ptr noundef nonnull align 1 dereferenceable(1) %42, ptr noundef nonnull align 1 dereferenceable(1) %43)
  %49 = load ptr, ptr %22, align 8
  %50 = load ptr, ptr %22, align 8
  %51 = load i8, ptr %41, align 1
  %52 = trunc i8 %51 to i1
  br i1 %52, label %53, label %54

53:                                               ; preds = %20
  br label %58

54:                                               ; preds = %20
  %55 = load i8, ptr %42, align 1
  %56 = trunc i8 %55 to i1
  %57 = select i1 %56, i32 1057, i32 1058
  br label %58

58:                                               ; preds = %54, %53
  %59 = phi i32 [ 1056, %53 ], [ %57, %54 ]
  %60 = call noundef i32 @_ZN5osgeo4proj9operationL35useOperationMethodEPSGCodeIfPresentERKNS0_4util11PropertyMapEi(ptr noundef nonnull align 8 dereferenceable(8) %50, i32 noundef %59)
  call void @_ZN5osgeo4proj9operation27createMethodMapNameEPSGCodeEi(ptr dead_on_unwind writable sret(%"class.osgeo::proj::util::PropertyMap") align 8 %44, i32 noundef %60)
  %61 = load ptr, ptr %23, align 8
  %62 = load ptr, ptr %24, align 8
  %63 = load double, ptr %25, align 8
  %64 = load double, ptr %26, align 8
  %65 = load double, ptr %27, align 8
  %66 = load double, ptr %28, align 8
  %67 = load double, ptr %29, align 8
  %68 = load double, ptr %30, align 8
  %69 = load double, ptr %31, align 8
  %70 = load double, ptr %32, align 8
  %71 = load double, ptr %33, align 8
  %72 = load double, ptr %34, align 8
  %73 = load double, ptr %35, align 8
  %74 = load double, ptr %36, align 8
  %75 = load double, ptr %37, align 8
  %76 = load double, ptr %38, align 8
  %77 = load double, ptr %39, align 8
  %78 = load ptr, ptr %40, align 8
  invoke void @_ZN5osgeo4proj9operationL28createFifteenParamsTransformERKNS0_4util11PropertyMapES5_RKN7dropbox6oxygen2nnISt10shared_ptrINS0_3crs3CRSEEEESF_dddddddddddddddRKSt6vectorINS8_IS9_INS0_8metadata18PositionalAccuracyEEEESaISK_EE(ptr dead_on_unwind writable sret(%"class.dropbox::oxygen::nn.68") align 8 %0, ptr noundef nonnull align 8 dereferenceable(8) %49, ptr noundef nonnull align 8 dereferenceable(8) %44, ptr noundef nonnull align 8 dereferenceable(16) %61, ptr noundef nonnull align 8 dereferenceable(16) %62, double noundef %63, double noundef %64, double noundef %65, double noundef %66, double noundef %67, double noundef %68, double noundef %69, double noundef %70, double noundef %71, double noundef %72, double noundef %73, double noundef %74, double noundef %75, double noundef %76, double noundef %77, ptr noundef nonnull align 8 dereferenceable(24) %78)
          to label %79 unwind label %80

79:                                               ; preds = %58
  call void @_ZN5osgeo4proj4util11PropertyMapD1Ev(ptr noundef nonnull align 8 dereferenceable(8) %44) #16
  ret void

80:                                               ; preds = %58
  %81 = landingpad { ptr, i32 }
          cleanup
  %82 = extractvalue { ptr, i32 } %81, 0
  store ptr %82, ptr %45, align 8
  %83 = extractvalue { ptr, i32 } %81, 1
  store i32 %83, ptr %46, align 4
  call void @_ZN5osgeo4proj4util11PropertyMapD1Ev(ptr noundef nonnull align 8 dereferenceable(8) %44) #16
  br label %84

84:                                               ; preds = %80
  %85 = load ptr, ptr %45, align 8
  %86 = load i32, ptr %46, align 4
  %87 = insertvalue { ptr, i32 } poison, ptr %85, 0
  %88 = insertvalue { ptr, i32 } %87, i32 %86, 1
  resume { ptr, i32 } %88
}